; ModuleID = '29/1234.c'
source_filename = "29/1234.c"
target datalayout = "e-m:e-p270:32:32-p271:32:32-p272:64:64-i64:64-f80:128-n8:16:32:64-S128"
target triple = "x86_64-pc-linux-gnu"

@.str = private unnamed_addr constant [3 x i8] c"%d\00", align 1
@.str.1 = private unnamed_addr constant [7 x i8] c"%.3lf\0A\00", align 1

; Function Attrs: noinline nounwind uwtable
define dso_local i32 @main() #0 {
  %1 = alloca i32, align 4
  %2 = alloca i32, align 4
  %3 = alloca i32, align 4
  %4 = alloca i32, align 4
  %5 = alloca i32, align 4
  %6 = alloca [100 x double], align 16
  %7 = alloca [100 x double], align 16
  %8 = alloca [100 x double], align 16
  store i32 0, i32* %1, align 4
  %9 = getelementptr inbounds [100 x double], [100 x double]* %7, i64 0, i64 0
  store double 2.000000e+00, double* %9, align 16
  %10 = getelementptr inbounds [100 x double], [100 x double]* %8, i64 0, i64 0
  store double 1.000000e+00, double* %10, align 16
  %11 = call i32 (i8*, ...) @__isoc99_scanf(i8* getelementptr inbounds ([3 x i8], [3 x i8]* @.str, i64 0, i64 0), i32* %2)
  store i32 0, i32* %4, align 4
  br label %12

12:                                               ; preds = %71, %0
  %13 = load i32, i32* %4, align 4
  %14 = load i32, i32* %2, align 4
  %15 = icmp slt i32 %13, %14
  br i1 %15, label %16, label %74

16:                                               ; preds = %12
  %17 = call i32 (i8*, ...) @__isoc99_scanf(i8* getelementptr inbounds ([3 x i8], [3 x i8]* @.str, i64 0, i64 0), i32* %3)
  %18 = load i32, i32* %4, align 4
  %19 = sext i32 %18 to i64
  %20 = getelementptr inbounds [100 x double], [100 x double]* %6, i64 0, i64 %19
  store double 0.000000e+00, double* %20, align 8
  store i32 1, i32* %5, align 4
  br label %21

21:                                               ; preds = %67, %16
  %22 = load i32, i32* %5, align 4
  %23 = load i32, i32* %3, align 4
  %24 = icmp sle i32 %22, %23
  br i1 %24, label %25, label %70

25:                                               ; preds = %21
  %26 = load i32, i32* %5, align 4
  %27 = sub nsw i32 %26, 1
  %28 = sext i32 %27 to i64
  %29 = getelementptr inbounds [100 x double], [100 x double]* %7, i64 0, i64 %28
  %30 = load double, double* %29, align 8
  %31 = load i32, i32* %5, align 4
  %32 = sub nsw i32 %31, 1
  %33 = sext i32 %32 to i64
  %34 = getelementptr inbounds [100 x double], [100 x double]* %8, i64 0, i64 %33
  %35 = load double, double* %34, align 8
  %36 = fadd double %30, %35
  %37 = load i32, i32* %5, align 4
  %38 = sext i32 %37 to i64
  %39 = getelementptr inbounds [100 x double], [100 x double]* %7, i64 0, i64 %38
  store double %36, double* %39, align 8
  %40 = load i32, i32* %5, align 4
  %41 = sub nsw i32 %40, 1
  %42 = sext i32 %41 to i64
  %43 = getelementptr inbounds [100 x double], [100 x double]* %7, i64 0, i64 %42
  %44 = load double, double* %43, align 8
  %45 = load i32, i32* %5, align 4
  %46 = sext i32 %45 to i64
  %47 = getelementptr inbounds [100 x double], [100 x double]* %8, i64 0, i64 %46
  store double %44, double* %47, align 8
  %48 = load i32, i32* %4, align 4
  %49 = sext i32 %48 to i64
  %50 = getelementptr inbounds [100 x double], [100 x double]* %6, i64 0, i64 %49
  %51 = load double, double* %50, align 8
  %52 = load i32, i32* %5, align 4
  %53 = sub nsw i32 %52, 1
  %54 = sext i32 %53 to i64
  %55 = getelementptr inbounds [100 x double], [100 x double]* %7, i64 0, i64 %54
  %56 = load double, double* %55, align 8
  %57 = load i32, i32* %5, align 4
  %58 = sub nsw i32 %57, 1
  %59 = sext i32 %58 to i64
  %60 = getelementptr inbounds [100 x double], [100 x double]* %8, i64 0, i64 %59
  %61 = load double, double* %60, align 8
  %62 = fdiv double %56, %61
  %63 = fadd double %51, %62
  %64 = load i32, i32* %4, align 4
  %65 = sext i32 %64 to i64
  %66 = getelementptr inbounds [100 x double], [100 x double]* %6, i64 0, i64 %65
  store double %63, double* %66, align 8
  br label %67

67:                                               ; preds = %25
  %68 = load i32, i32* %5, align 4
  %69 = add nsw i32 %68, 1
  store i32 %69, i32* %5, align 4
  br label %21

70:                                               ; preds = %21
  br label %71

71:                                               ; preds = %70
  %72 = load i32, i32* %4, align 4
  %73 = add nsw i32 %72, 1
  store i32 %73, i32* %4, align 4
  br label %12

74:                                               ; preds = %12
  store i32 0, i32* %4, align 4
  br label %75

75:                                               ; preds = %85, %74
  %76 = load i32, i32* %4, align 4
  %77 = load i32, i32* %2, align 4
  %78 = icmp slt i32 %76, %77
  br i1 %78, label %79, label %88

79:                                               ; preds = %75
  %80 = load i32, i32* %4, align 4
  %81 = sext i32 %80 to i64
  %82 = getelementptr inbounds [100 x double], [100 x double]* %6, i64 0, i64 %81
  %83 = load double, double* %82, align 8
  %84 = call i32 (i8*, ...) @printf(i8* getelementptr inbounds ([7 x i8], [7 x i8]* @.str.1, i64 0, i64 0), double %83)
  br label %85

85:                                               ; preds = %79
  %86 = load i32, i32* %4, align 4
  %87 = add nsw i32 %86, 1
  store i32 %87, i32* %4, align 4
  br label %75

88:                                               ; preds = %75
  ret i32 0
}

declare dso_local i32 @__isoc99_scanf(i8*, ...) #1

declare dso_local i32 @printf(i8*, ...) #1


!llvm.module.flags = !{!0}
!llvm.ident = !{!1}

!0 = !{i32 1, !"wchar_size", i32 4}
!1 = !{!"clang version 10.0.0-4ubuntu1 "}
